; Function Attrs: mustprogress nofree norecurse nosync nounwind willreturn memory(argmem: write) uwtable
define internal noundef zeroext i1 @"_ZNSt17_Function_handlerIFvRN4test5emptyERNS0_7emitterEEZZN30Emitter_ClearFromCallback_Test8TestBodyEvENK3$_1clIS1_S3_EEDaRKT_RT0_EUlSB_SD_E_E10_M_managerERSt9_Any_dataRKSG_St18_Manager_operation"(ptr noundef nonnull writeonly align 8 captures(none) dereferenceable(16) %0, ptr noundef nonnull align 8 dereferenceable(16) %1, i32 noundef %2) #16 align 2 personality ptr @__gxx_personality_v0 {
  switch i32 %2, label %"_ZNSt14_Function_base13_Base_managerIZZN30Emitter_ClearFromCallback_Test8TestBodyEvENK3$_1clIN4test5emptyENS4_7emitterEEEDaRKT_RT0_EUlS9_SB_E_E10_M_managerERSt9_Any_dataRKSE_St18_Manager_operation.exit" [
    i32 0, label %"_ZNSt14_Function_base13_Base_managerIZZN30Emitter_ClearFromCallback_Test8TestBodyEvENK3$_1clIN4test5emptyENS4_7emitterEEEDaRKT_RT0_EUlS9_SB_E_E10_M_managerERSt9_Any_dataRKSE_St18_Manager_operation.exit.sink.split"
    i32 1, label %4
  ]

4:                                                ; preds = %3
  br label %"_ZNSt14_Function_base13_Base_managerIZZN30Emitter_ClearFromCallback_Test8TestBodyEvENK3$_1clIN4test5emptyENS4_7emitterEEEDaRKT_RT0_EUlS9_SB_E_E10_M_managerERSt9_Any_dataRKSE_St18_Manager_operation.exit.sink.split"

"_ZNSt14_Function_base13_Base_managerIZZN30Emitter_ClearFromCallback_Test8TestBodyEvENK3$_1clIN4test5emptyENS4_7emitterEEEDaRKT_RT0_EUlS9_SB_E_E10_M_managerERSt9_Any_dataRKSE_St18_Manager_operation.exit.sink.split": ; preds = %3, %4
  %.sink = phi ptr [ %1, %4 ], [ @"_ZTIZZN30Emitter_ClearFromCallback_Test8TestBodyEvENK3$_1clIN4test5emptyENS2_7emitterEEEDaRKT_RT0_EUlS7_S9_E_", %3 ]
  store ptr %.sink, ptr %0, align 8, !tbaa !95
  br label %"_ZNSt14_Function_base13_Base_managerIZZN30Emitter_ClearFromCallback_Test8TestBodyEvENK3$_1clIN4test5emptyENS4_7emitterEEEDaRKT_RT0_EUlS9_SB_E_E10_M_managerERSt9_Any_dataRKSE_St18_Manager_operation.exit"

"_ZNSt14_Function_base13_Base_managerIZZN30Emitter_ClearFromCallback_Test8TestBodyEvENK3$_1clIN4test5emptyENS4_7emitterEEEDaRKT_RT0_EUlS9_SB_E_E10_M_managerERSt9_Any_dataRKSE_St18_Manager_operation.exit": ; preds = %"_ZNSt14_Function_base13_Base_managerIZZN30Emitter_ClearFromCallback_Test8TestBodyEvENK3$_1clIN4test5emptyENS4_7emitterEEEDaRKT_RT0_EUlS9_SB_E_E10_M_managerERSt9_Any_dataRKSE_St18_Manager_operation.exit.sink.split", %3
  ret i1 false
}